; Function Attrs: mustprogress uwtable
define noundef ptr @_ZN12duckdb_miniz29mz_zip_reader_extract_to_heapEPNS_14mz_zip_archiveEjPmj(ptr noundef captures(address_is_null) %0, i32 noundef %1, ptr noundef writeonly captures(address_is_null) %2, i32 noundef %3) local_unnamed_addr #8 {
  %.not.i41 = icmp eq ptr %0, null
  br i1 %.not.i41, label %_ZN12duckdb_minizL14mz_zip_get_cdhEPNS_14mz_zip_archiveEj.exit, label %5

5:                                                ; preds = %4
  %6 = getelementptr inbounds nuw i8, ptr %0, i64 104
  %7 = load ptr, ptr %6, align 8, !tbaa !204
  %.not12.i = icmp eq ptr %7, null
  br i1 %.not12.i, label %_ZN12duckdb_minizL14mz_zip_get_cdhEPNS_14mz_zip_archiveEj.exit, label %8

8:                                                ; preds = %5
  %9 = getelementptr inbounds nuw i8, ptr %0, i64 16
  %10 = load i32, ptr %9, align 8, !tbaa !230
  %.not13.i = icmp ult i32 %1, %10
  br i1 %.not13.i, label %11, label %_ZN12duckdb_minizL14mz_zip_get_cdhEPNS_14mz_zip_archiveEj.exit

11:                                               ; preds = %8
  %12 = load ptr, ptr %7, align 8, !tbaa !235
  %13 = getelementptr inbounds nuw i8, ptr %7, i64 32
  %14 = load ptr, ptr %13, align 8, !tbaa !236
  %15 = zext i32 %1 to i64
  %16 = getelementptr inbounds nuw i32, ptr %14, i64 %15
  %17 = load i32, ptr %16, align 4, !tbaa !10
  %18 = zext i32 %17 to i64
  %19 = getelementptr inbounds nuw i8, ptr %12, i64 %18
  br label %_ZN12duckdb_minizL14mz_zip_get_cdhEPNS_14mz_zip_archiveEj.exit

_ZN12duckdb_minizL14mz_zip_get_cdhEPNS_14mz_zip_archiveEj.exit: ; preds = %4, %5, %8, %11
  %.0.i = phi ptr [ %19, %11 ], [ null, %8 ], [ null, %5 ], [ null, %4 ]
  %.not = icmp eq ptr %2, null
  br i1 %.not, label %21, label %20

20:                                               ; preds = %_ZN12duckdb_minizL14mz_zip_get_cdhEPNS_14mz_zip_archiveEj.exit
  store i64 0, ptr %2, align 8, !tbaa !53
  br label %21

21:                                               ; preds = %20, %_ZN12duckdb_minizL14mz_zip_get_cdhEPNS_14mz_zip_archiveEj.exit
  %.not36 = icmp eq ptr %.0.i, null
  br i1 %.not36, label %22, label %25

22:                                               ; preds = %21
  br i1 %.not.i41, label %_ZN12duckdb_minizL16mz_zip_set_errorEPNS_14mz_zip_archiveENS_12mz_zip_errorE.exit40, label %23

23:                                               ; preds = %22
  %24 = getelementptr inbounds nuw i8, ptr %0, i64 28
  store i32 24, ptr %24, align 4, !tbaa !213
  br label %_ZN12duckdb_minizL16mz_zip_set_errorEPNS_14mz_zip_archiveENS_12mz_zip_errorE.exit40

25:                                               ; preds = %21
  %26 = getelementptr inbounds nuw i8, ptr %.0.i, i64 20
  %27 = load i32, ptr %26, align 1
  %28 = getelementptr inbounds nuw i8, ptr %.0.i, i64 24
  %29 = load i32, ptr %28, align 1
  %30 = and i32 %3, 1024
  %.not37 = icmp eq i32 %30, 0
  %.v = select i1 %.not37, i32 %29, i32 %27
  %31 = zext i32 %.v to i64
  %32 = getelementptr inbounds nuw i8, ptr %0, i64 40
  %33 = load ptr, ptr %32, align 8, !tbaa !210
  %34 = getelementptr inbounds nuw i8, ptr %0, i64 64
  %35 = load ptr, ptr %34, align 8, !tbaa !214
  %36 = tail call noundef ptr %33(ptr noundef %35, i64 noundef 1, i64 noundef %31)
  %37 = icmp eq ptr %36, null
  br i1 %37, label %_ZN12duckdb_minizL16mz_zip_set_errorEPNS_14mz_zip_archiveENS_12mz_zip_errorE.exit, label %39

_ZN12duckdb_minizL16mz_zip_set_errorEPNS_14mz_zip_archiveENS_12mz_zip_errorE.exit: ; preds = %25
  %38 = getelementptr inbounds nuw i8, ptr %0, i64 28
  store i32 16, ptr %38, align 4, !tbaa !213
  br label %_ZN12duckdb_minizL16mz_zip_set_errorEPNS_14mz_zip_archiveENS_12mz_zip_errorE.exit40

39:                                               ; preds = %25
  %40 = tail call noundef range(i32 0, 2) i32 @_ZN12duckdb_miniz37mz_zip_reader_extract_to_mem_no_allocEPNS_14mz_zip_archiveEjPvmjS2_m(ptr noundef nonnull %0, i32 noundef %1, ptr noundef nonnull %36, i64 noundef %31, i32 noundef %3, ptr noundef null, i64 noundef 0)
  %.not38 = icmp eq i32 %40, 0
  br i1 %.not38, label %41, label %45

41:                                               ; preds = %39
  %42 = getelementptr inbounds nuw i8, ptr %0, i64 48
  %43 = load ptr, ptr %42, align 8, !tbaa !211
  %44 = load ptr, ptr %34, align 8, !tbaa !214
  tail call void %43(ptr noundef %44, ptr noundef nonnull %36)
  br label %_ZN12duckdb_minizL16mz_zip_set_errorEPNS_14mz_zip_archiveENS_12mz_zip_errorE.exit40

45:                                               ; preds = %39
  br i1 %.not, label %_ZN12duckdb_minizL16mz_zip_set_errorEPNS_14mz_zip_archiveENS_12mz_zip_errorE.exit40, label %46

46:                                               ; preds = %45
  store i64 %31, ptr %2, align 8, !tbaa !53
  br label %_ZN12duckdb_minizL16mz_zip_set_errorEPNS_14mz_zip_archiveENS_12mz_zip_errorE.exit40

_ZN12duckdb_minizL16mz_zip_set_errorEPNS_14mz_zip_archiveENS_12mz_zip_errorE.exit40: ; preds = %23, %22, %45, %46, %41, %_ZN12duckdb_minizL16mz_zip_set_errorEPNS_14mz_zip_archiveENS_12mz_zip_errorE.exit
  %.0 = phi ptr [ null, %_ZN12duckdb_minizL16mz_zip_set_errorEPNS_14mz_zip_archiveENS_12mz_zip_errorE.exit ], [ null, %41 ], [ %36, %46 ], [ %36, %45 ], [ null, %22 ], [ null, %23 ]
  ret ptr %.0
}